ccopy_reg
_reconstructor
p1
(c__main__
NetworkDevice
p2
c__builtin__
object
p3
NtRp4
(dp5
S'uptime'
p6
I905177219
sS'run_config_changed'
p7
I00
sS'last_changed'
p8
I905091697
sS'device_name'
p9
Vpynet-rtr2.twb-tech.com
p10
sb.ccopy_reg
_reconstructor
p1
(c__main__
NetworkDevice
p2
c__builtin__
object
p3
NtRp4
(dp5
S'uptime'
p6
I897101462
sS'run_config_changed'
p7
I01
sS'last_changed'
p8
I897098722
sS'device_name'
p9
Vpynet-rtr1.twb-tech.com
p10
sb.